; Function Attrs: mustprogress uwtable
define hidden void @_ZN3sls10seq_plugin17propagate_literalEN3sat7literalE(ptr noundef nonnull align 8 dereferenceable(768) %0, i32 %1) unnamed_addr #3 align 2 {
  %3 = getelementptr inbounds nuw i8, ptr %0, i64 8
  %4 = load ptr, ptr %3, align 8, !tbaa !150
  %5 = lshr i32 %1, 1
  %6 = getelementptr inbounds nuw i8, ptr %4, i64 80
  %7 = load ptr, ptr %6, align 8, !tbaa !78
  %8 = icmp eq ptr %7, null
  br i1 %8, label %_ZN3sls7context4atomEj.exit, label %_ZNK6vectorIP4exprLb0EjE3getEjRKS1_.exit.i.i

_ZNK6vectorIP4exprLb0EjE3getEjRKS1_.exit.i.i:     ; preds = %2
  %9 = getelementptr inbounds i8, ptr %7, i64 -4
  %10 = load i32, ptr %9, align 4, !tbaa !130
  %.not.i.i.i = icmp ult i32 %5, %10
  br i1 %.not.i.i.i, label %_ZNK6vectorIP4exprLb0EjE3getEjRKS1_.exit.then.i.i, label %_ZN3sls7context4atomEj.exit

_ZNK6vectorIP4exprLb0EjE3getEjRKS1_.exit.then.i.i: ; preds = %_ZNK6vectorIP4exprLb0EjE3getEjRKS1_.exit.i.i
  %11 = zext nneg i32 %5 to i64
  %12 = getelementptr inbounds nuw ptr, ptr %7, i64 %11
  %.then.val.i.i = load ptr, ptr %12, align 8, !tbaa !143
  br label %_ZN3sls7context4atomEj.exit

_ZN3sls7context4atomEj.exit:                      ; preds = %2, %_ZNK6vectorIP4exprLb0EjE3getEjRKS1_.exit.i.i, %_ZNK6vectorIP4exprLb0EjE3getEjRKS1_.exit.then.i.i
  %13 = phi ptr [ %.then.val.i.i, %_ZNK6vectorIP4exprLb0EjE3getEjRKS1_.exit.then.i.i ], [ null, %_ZNK6vectorIP4exprLb0EjE3getEjRKS1_.exit.i.i ], [ null, %2 ]
  %14 = tail call noundef zeroext i1 @_ZN3sls10seq_plugin16is_seq_predicateEP4expr(ptr noundef nonnull align 8 dereferenceable(768) %0, ptr noundef %13)
  br i1 %14, label %15, label %22

15:                                               ; preds = %_ZN3sls7context4atomEj.exit
  %16 = tail call noundef zeroext i1 @_ZN3sls10seq_plugin5bval1EP4expr(ptr noundef nonnull align 8 dereferenceable(768) %0, ptr noundef %13)
  %17 = and i32 %1, 1
  %18 = icmp ne i32 %17, 0
  %19 = xor i1 %18, %16
  br i1 %19, label %22, label %20

20:                                               ; preds = %15
  %21 = load ptr, ptr %3, align 8, !tbaa !150
  tail call void @_ZN3sls7context12new_value_ehEP4expr(ptr noundef nonnull align 8 dereferenceable(321) %21, ptr noundef %13)
  br label %22

22:                                               ; preds = %15, %_ZN3sls7context4atomEj.exit, %20
  ret void
}